target datalayout = "e-m:e-p270:32:32-p271:32:32-p272:64:64-i64:64-i128:128-f80:128-n8:16:32:64-S128"
target triple = "x86_64-pc-linux-gnu"

%struct.QObjectBase_ = type { i32, i64 }
%struct.QObject = type { %struct.QObjectBase_ }
%struct.BlockdevOptionsList = type { ptr, ptr }
%struct.BlockdevOptions = type { i32, ptr, i8, i32, ptr, i8, i8, i8, i8, i8, i8, i8, i8, i8, i32, %union.anon.21 }
%union.anon.21 = type { %struct.BlockdevOptionsBlkdebug }
%struct.BlockdevOptionsBlkdebug = type { ptr, ptr, i8, i64, i8, i32, i8, i32, i8, i32, i8, i32, i8, i32, i8, ptr, i8, ptr, i8, ptr, i8, ptr }

@.str.1 = private unnamed_addr constant [19 x i8] c"../qemu/blockdev.c\00", align 1
@error_abort = external global ptr, align 8
@__func__.qmp_blockdev_reopen = private unnamed_addr constant [20 x i8] c"qmp_blockdev_reopen\00", align 1
@.str.122 = private unnamed_addr constant [24 x i8] c"node-name not specified\00", align 1
@.str.123 = private unnamed_addr constant [40 x i8] c"Failed to find node with node-name='%s'\00", align 1
@.str.207 = private unnamed_addr constant [59 x i8] c"QTYPE_NONE < obj->base.type && obj->base.type < QTYPE__MAX\00", align 1
@.str.208 = private unnamed_addr constant [104 x i8] c"/home/dtcxzyw/WorkSpace/Projects/compilers/llvm-opt-benchmark/bench/qemu/qemu/include/qobject/qobject.h\00", align 1
@__PRETTY_FUNCTION__.qobject_type = private unnamed_addr constant [36 x i8] c"QType qobject_type(const QObject *)\00", align 1

; Function Attrs: inlinehint nounwind sspstrong uwtable
define internal i32 @qobject_type(ptr noundef %0) #5 {
  %2 = alloca ptr, align 8
  store ptr %0, ptr %2, align 8
  %3 = load ptr, ptr %2, align 8
  %4 = getelementptr inbounds nuw %struct.QObject, ptr %3, i32 0, i32 0
  %5 = getelementptr inbounds nuw %struct.QObjectBase_, ptr %4, i32 0, i32 0
  %6 = load i32, ptr %5, align 8
  %7 = icmp ult i32 0, %6
  br i1 %7, label %8, label %15

8:                                                ; preds = %1
  %9 = load ptr, ptr %2, align 8
  %10 = getelementptr inbounds nuw %struct.QObject, ptr %9, i32 0, i32 0
  %11 = getelementptr inbounds nuw %struct.QObjectBase_, ptr %10, i32 0, i32 0
  %12 = load i32, ptr %11, align 8
  %13 = icmp ult i32 %12, 7
  br i1 %13, label %14, label %15

14:                                               ; preds = %8
  br label %16

15:                                               ; preds = %8, %1
  call void @__assert_fail(ptr noundef @.str.207, ptr noundef @.str.208, i32 noundef 126, ptr noundef @__PRETTY_FUNCTION__.qobject_type) #15
  unreachable

16:                                               ; preds = %14
  %17 = load ptr, ptr %2, align 8
  %18 = getelementptr inbounds nuw %struct.QObject, ptr %17, i32 0, i32 0
  %19 = getelementptr inbounds nuw %struct.QObjectBase_, ptr %18, i32 0, i32 0
  %20 = load i32, ptr %19, align 8
  ret i32 %20
}

; Function Attrs: inlinehint nounwind sspstrong uwtable
define internal ptr @qobject_check_type(ptr noundef %0, i32 noundef %1) #5 {
  %3 = alloca ptr, align 8
  %4 = alloca ptr, align 8
  %5 = alloca i32, align 4
  store ptr %0, ptr %4, align 8
  store i32 %1, ptr %5, align 4
  %6 = load ptr, ptr %4, align 8
  %7 = icmp ne ptr %6, null
  br i1 %7, label %8, label %15

8:                                                ; preds = %2
  %9 = load ptr, ptr %4, align 8
  %10 = call i32 @qobject_type(ptr noundef %9)
  %11 = load i32, ptr %5, align 4
  %12 = icmp eq i32 %10, %11
  br i1 %12, label %13, label %15

13:                                               ; preds = %8
  %14 = load ptr, ptr %4, align 8
  store ptr %14, ptr %3, align 8
  br label %16

15:                                               ; preds = %8, %2
  store ptr null, ptr %3, align 8
  br label %16

16:                                               ; preds = %15, %13
  %17 = load ptr, ptr %3, align 8
  ret ptr %17
}

; Function Attrs: nounwind sspstrong uwtable
define dso_local void @qmp_blockdev_reopen(ptr noundef %0, ptr noundef %1) #0 {
  %3 = alloca ptr, align 8
  %4 = alloca ptr, align 8
  %5 = alloca ptr, align 8
  %6 = alloca ptr, align 8
  %7 = alloca ptr, align 8
  %8 = alloca ptr, align 8
  %9 = alloca ptr, align 8
  %10 = alloca ptr, align 8
  %11 = alloca i32, align 4
  store ptr %0, ptr %3, align 8
  store ptr %1, ptr %4, align 8
  call void @llvm.lifetime.start.p0(i64 8, ptr %5) #16
  store ptr null, ptr %5, align 8
  br label %12

12:                                               ; preds = %53, %2
  %13 = load ptr, ptr %3, align 8
  %14 = icmp ne ptr %13, null
  br i1 %14, label %15, label %57

15:                                               ; preds = %12
  call void @llvm.lifetime.start.p0(i64 8, ptr %6) #16
  %16 = load ptr, ptr %3, align 8
  %17 = getelementptr inbounds nuw %struct.BlockdevOptionsList, ptr %16, i32 0, i32 1
  %18 = load ptr, ptr %17, align 8
  store ptr %18, ptr %6, align 8
  call void @llvm.lifetime.start.p0(i64 8, ptr %7) #16
  store ptr null, ptr %7, align 8, !annotation !4
  call void @llvm.lifetime.start.p0(i64 8, ptr %8) #16
  store ptr null, ptr %8, align 8, !annotation !4
  call void @llvm.lifetime.start.p0(i64 8, ptr %9) #16
  store ptr null, ptr %9, align 8, !annotation !4
  call void @llvm.lifetime.start.p0(i64 8, ptr %10) #16
  store ptr null, ptr %10, align 8, !annotation !4
  %19 = load ptr, ptr %6, align 8
  %20 = getelementptr inbounds nuw %struct.BlockdevOptions, ptr %19, i32 0, i32 1
  %21 = load ptr, ptr %20, align 8
  %22 = icmp ne ptr %21, null
  br i1 %22, label %25, label %23

23:                                               ; preds = %15
  %24 = load ptr, ptr %4, align 8
  call void (ptr, ptr, i32, ptr, ptr, ...) @error_setg_internal(ptr noundef %24, ptr noundef @.str.1, i32 noundef 3405, ptr noundef @__func__.qmp_blockdev_reopen, ptr noundef @.str.122)
  store i32 5, ptr %11, align 4
  br label %50

25:                                               ; preds = %15
  %26 = load ptr, ptr %6, align 8
  %27 = getelementptr inbounds nuw %struct.BlockdevOptions, ptr %26, i32 0, i32 1
  %28 = load ptr, ptr %27, align 8
  %29 = call ptr @bdrv_find_node(ptr noundef %28)
  store ptr %29, ptr %7, align 8
  %30 = load ptr, ptr %7, align 8
  %31 = icmp ne ptr %30, null
  br i1 %31, label %37, label %32

32:                                               ; preds = %25
  %33 = load ptr, ptr %4, align 8
  %34 = load ptr, ptr %6, align 8
  %35 = getelementptr inbounds nuw %struct.BlockdevOptions, ptr %34, i32 0, i32 1
  %36 = load ptr, ptr %35, align 8
  call void (ptr, ptr, i32, ptr, ptr, ...) @error_setg_internal(ptr noundef %33, ptr noundef @.str.1, i32 noundef 3412, ptr noundef @__func__.qmp_blockdev_reopen, ptr noundef @.str.123, ptr noundef %36)
  store i32 5, ptr %11, align 4
  br label %50

37:                                               ; preds = %25
  %38 = call ptr @qobject_output_visitor_new(ptr noundef %8)
  store ptr %38, ptr %9, align 8
  %39 = load ptr, ptr %9, align 8
  %40 = call zeroext i1 @visit_type_BlockdevOptions(ptr noundef %39, ptr noundef null, ptr noundef %6, ptr noundef @error_abort)
  %41 = load ptr, ptr %9, align 8
  call void @visit_complete(ptr noundef %41, ptr noundef %8)
  %42 = load ptr, ptr %9, align 8
  call void @visit_free(ptr noundef %42)
  %43 = load ptr, ptr %8, align 8
  %44 = call ptr @qobject_check_type(ptr noundef %43, i32 noundef 4)
  store ptr %44, ptr %10, align 8
  %45 = load ptr, ptr %10, align 8
  call void @qdict_flatten(ptr noundef %45)
  %46 = load ptr, ptr %5, align 8
  %47 = load ptr, ptr %7, align 8
  %48 = load ptr, ptr %10, align 8
  %49 = call ptr @bdrv_reopen_queue(ptr noundef %46, ptr noundef %47, ptr noundef %48, i1 noundef zeroext false)
  store ptr %49, ptr %5, align 8
  store i32 0, ptr %11, align 4
  br label %50

50:                                               ; preds = %32, %23, %37
  call void @llvm.lifetime.end.p0(i64 8, ptr %10) #16
  call void @llvm.lifetime.end.p0(i64 8, ptr %9) #16
  call void @llvm.lifetime.end.p0(i64 8, ptr %8) #16
  call void @llvm.lifetime.end.p0(i64 8, ptr %7) #16
  call void @llvm.lifetime.end.p0(i64 8, ptr %6) #16
  %51 = load i32, ptr %11, align 4
  switch i32 %51, label %63 [
    i32 0, label %52
    i32 5, label %61
  ]

52:                                               ; preds = %50
  br label %53

53:                                               ; preds = %52
  %54 = load ptr, ptr %3, align 8
  %55 = getelementptr inbounds nuw %struct.BlockdevOptionsList, ptr %54, i32 0, i32 0
  %56 = load ptr, ptr %55, align 8
  store ptr %56, ptr %3, align 8
  br label %12, !llvm.loop !25

57:                                               ; preds = %12
  %58 = load ptr, ptr %5, align 8
  %59 = load ptr, ptr %4, align 8
  %60 = call i32 @bdrv_reopen_multiple(ptr noundef %58, ptr noundef %59)
  store ptr null, ptr %5, align 8
  br label %61

61:                                               ; preds = %57, %50
  %62 = load ptr, ptr %5, align 8
  call void @bdrv_reopen_queue_free(ptr noundef %62)
  call void @llvm.lifetime.end.p0(i64 8, ptr %5) #16
  ret void

63:                                               ; preds = %50
  unreachable
}