; Function Attrs: nounwind sspstrong uwtable
define dso_local void @qmp_blockdev_reopen(ptr noundef readonly captures(address_is_null) %0, ptr noundef %1) local_unnamed_addr #0 {
  %3 = alloca ptr, align 8
  %4 = alloca ptr, align 8
  %.not29 = icmp eq ptr %0, null
  br i1 %.not29, label %._crit_edge, label %.lr.ph

.lr.ph:                                           ; preds = %2, %25
  %.01631 = phi ptr [ %26, %25 ], [ null, %2 ]
  %.01730 = phi ptr [ %27, %25 ], [ %0, %2 ]
  call void @llvm.lifetime.start.p0(i64 8, ptr nonnull %3) #14
  %5 = getelementptr inbounds nuw i8, ptr %.01730, i64 8
  %6 = load ptr, ptr %5, align 8
  store ptr %6, ptr %3, align 8
  call void @llvm.lifetime.start.p0(i64 8, ptr nonnull %4) #14
  store ptr null, ptr %4, align 8, !annotation !10
  %7 = getelementptr inbounds nuw i8, ptr %6, i64 8
  %8 = load ptr, ptr %7, align 8
  %.not20 = icmp eq ptr %8, null
  br i1 %.not20, label %9, label %10

9:                                                ; preds = %.lr.ph
  call void (ptr, ptr, i32, ptr, ptr, ...) @error_setg_internal(ptr noundef %1, ptr noundef nonnull @.str.1, i32 noundef 3405, ptr noundef nonnull @__func__.qmp_blockdev_reopen, ptr noundef nonnull @.str.122) #14
  br label %.thread

10:                                               ; preds = %.lr.ph
  %11 = call ptr @bdrv_find_node(ptr noundef nonnull %8) #14
  %.not21 = icmp eq ptr %11, null
  br i1 %.not21, label %12, label %16

12:                                               ; preds = %10
  %13 = load ptr, ptr %3, align 8
  %14 = getelementptr inbounds nuw i8, ptr %13, i64 8
  %15 = load ptr, ptr %14, align 8
  call void (ptr, ptr, i32, ptr, ptr, ...) @error_setg_internal(ptr noundef %1, ptr noundef nonnull @.str.1, i32 noundef 3412, ptr noundef nonnull @__func__.qmp_blockdev_reopen, ptr noundef nonnull @.str.123, ptr noundef %15) #14
  br label %.thread

16:                                               ; preds = %10
  %17 = call ptr @qobject_output_visitor_new(ptr noundef nonnull %4) #14
  %18 = call zeroext i1 @visit_type_BlockdevOptions(ptr noundef %17, ptr noundef null, ptr noundef nonnull %3, ptr noundef nonnull @error_abort) #14
  call void @visit_complete(ptr noundef %17, ptr noundef nonnull %4) #14
  call void @visit_free(ptr noundef %17) #14
  %19 = load ptr, ptr %4, align 8
  %.not.i = icmp eq ptr %19, null
  br i1 %.not.i, label %24, label %20

20:                                               ; preds = %16
  %.val.i = load i32, ptr %19, align 8
  %21 = add i32 %.val.i, -1
  %or.cond.i.i = icmp ult i32 %21, 6
  br i1 %or.cond.i.i, label %qobject_type.exit.i, label %22

22:                                               ; preds = %20
  call void @__assert_fail(ptr noundef nonnull @.str.207, ptr noundef nonnull @.str.208, i32 noundef 126, ptr noundef nonnull @__PRETTY_FUNCTION__.qobject_type) #15
  unreachable

qobject_type.exit.i:                              ; preds = %20
  %23 = icmp eq i32 %.val.i, 4
  br i1 %23, label %25, label %24

24:                                               ; preds = %qobject_type.exit.i, %16
  br label %25

.thread:                                          ; preds = %12, %9
  call void @llvm.lifetime.end.p0(i64 8, ptr nonnull %4) #14
  call void @llvm.lifetime.end.p0(i64 8, ptr nonnull %3) #14
  br label %29

25:                                               ; preds = %qobject_type.exit.i, %24
  %.0.i = phi ptr [ null, %24 ], [ %19, %qobject_type.exit.i ]
  call void @qdict_flatten(ptr noundef %.0.i) #14
  %26 = call ptr @bdrv_reopen_queue(ptr noundef %.01631, ptr noundef nonnull %11, ptr noundef %.0.i, i1 noundef zeroext false) #14
  call void @llvm.lifetime.end.p0(i64 8, ptr nonnull %4) #14
  call void @llvm.lifetime.end.p0(i64 8, ptr nonnull %3) #14
  %27 = load ptr, ptr %.01730, align 8
  %.not = icmp eq ptr %27, null
  br i1 %.not, label %._crit_edge, label %.lr.ph, !llvm.loop !23

._crit_edge:                                      ; preds = %25, %2
  %.016.lcssa = phi ptr [ null, %2 ], [ %26, %25 ]
  %28 = call i32 @bdrv_reopen_multiple(ptr noundef %.016.lcssa, ptr noundef %1) #14
  br label %29

29:                                               ; preds = %.thread, %._crit_edge
  %.2 = phi ptr [ null, %._crit_edge ], [ %.01631, %.thread ]
  call void @bdrv_reopen_queue_free(ptr noundef %.2) #14
  ret void
}